; Function Attrs: mustprogress nounwind uwtable
define internal fastcc void @_ZN10ptr_vectorIN12_GLOBAL__N_19path_treeEED2Ev(ptr %this.0.val) unnamed_addr #5 align 2 personality ptr @__gxx_personality_v0 {
entry:
  %tobool.not.i.i = icmp eq ptr %this.0.val, null
  br i1 %tobool.not.i.i, label %_ZN6vectorIPN12_GLOBAL__N_19path_treeELb0EjED2Ev.exit, label %if.then.i.i

if.then.i.i:                                      ; preds = %entry
  %add.ptr.i.i.i = getelementptr inbounds i8, ptr %this.0.val, i64 -8
  invoke void @_ZN6memory10deallocateEPv(ptr noundef nonnull %add.ptr.i.i.i)
          to label %_ZN6vectorIPN12_GLOBAL__N_19path_treeELb0EjED2Ev.exit unwind label %terminate.lpad.i

terminate.lpad.i:                                 ; preds = %if.then.i.i
  %0 = landingpad { ptr, i32 }
          catch ptr null
  %1 = extractvalue { ptr, i32 } %0, 0
  tail call void @__clang_call_terminate(ptr %1) #22
  unreachable

_ZN6vectorIPN12_GLOBAL__N_19path_treeELb0EjED2Ev.exit: ; preds = %entry, %if.then.i.i
  ret void
}